; Function Attrs: mustprogress uwtable
define i32 @grpc_is_initialized() local_unnamed_addr #3 personality ptr @__gxx_personality_v0 {
entry:
  tail call void @gpr_once_init(ptr noundef nonnull @_ZL12g_basic_init, ptr noundef nonnull @_ZL13do_basic_initv)
  %0 = load ptr, ptr @_ZL9g_init_mu, align 8
  tail call void @_ZN4absl12lts_202308025Mutex4LockEv(ptr noundef nonnull align 8 dereferenceable(8) %0)
  %1 = load i32, ptr @_ZL17g_initializations, align 4
  invoke void @_ZN4absl12lts_202308025Mutex6UnlockEv(ptr noundef nonnull align 8 dereferenceable(8) %0)
          to label %_ZN4absl12lts_202308029MutexLockD2Ev.exit unwind label %terminate.lpad.i

terminate.lpad.i:                                 ; preds = %entry
  %2 = landingpad { ptr, i32 }
          catch ptr null
  %3 = extractvalue { ptr, i32 } %2, 0
  tail call void @__clang_call_terminate(ptr %3) #15
  unreachable

_ZN4absl12lts_202308029MutexLockD2Ev.exit:        ; preds = %entry
  %cmp = icmp sgt i32 %1, 0
  %conv = zext i1 %cmp to i32
  ret i32 %conv
}